; ModuleID = '16/555.c'
source_filename = "16/555.c"
target datalayout = "e-m:e-p270:32:32-p271:32:32-p272:64:64-i64:64-f80:128-n8:16:32:64-S128"
target triple = "x86_64-pc-linux-gnu"

@.str = private unnamed_addr constant [3 x i8] c"%d\00", align 1
@.str.1 = private unnamed_addr constant [4 x i8] c"%d\0A\00", align 1
@.str.2 = private unnamed_addr constant [6 x i8] c"%d%d\0A\00", align 1
@.str.3 = private unnamed_addr constant [8 x i8] c"%d%d%d\0A\00", align 1
@.str.4 = private unnamed_addr constant [10 x i8] c"%d%d%d%d\0A\00", align 1
@.str.5 = private unnamed_addr constant [12 x i8] c"%d%d%d%d%d\0A\00", align 1

; Function Attrs: noinline nounwind uwtable
define dso_local i32 @main() #0 {
  %1 = alloca i32, align 4
  %2 = alloca i32, align 4
  %3 = alloca i32, align 4
  %4 = alloca i32, align 4
  %5 = alloca i32, align 4
  %6 = alloca i32, align 4
  %7 = alloca i32, align 4
  %8 = alloca i32, align 4
  %9 = alloca i32, align 4
  %10 = alloca i32, align 4
  %11 = alloca i32, align 4
  %12 = alloca i32, align 4
  store i32 0, i32* %1, align 4
  %13 = call i32 (i8*, ...) @__isoc99_scanf(i8* getelementptr inbounds ([3 x i8], [3 x i8]* @.str, i64 0, i64 0), i32* %2)
  %14 = load i32, i32* %2, align 4
  %15 = sdiv i32 %14, 10
  store i32 %15, i32* %3, align 4
  %16 = load i32, i32* %2, align 4
  %17 = srem i32 %16, 10
  store i32 %17, i32* %8, align 4
  %18 = load i32, i32* %3, align 4
  %19 = icmp eq i32 %18, 0
  br i1 %19, label %20, label %23

20:                                               ; preds = %0
  %21 = load i32, i32* %8, align 4
  %22 = call i32 (i8*, ...) @printf(i8* getelementptr inbounds ([4 x i8], [4 x i8]* @.str.1, i64 0, i64 0), i32 %21)
  br label %73

23:                                               ; preds = %0
  %24 = load i32, i32* %3, align 4
  %25 = sdiv i32 %24, 10
  store i32 %25, i32* %4, align 4
  %26 = load i32, i32* %3, align 4
  %27 = srem i32 %26, 10
  store i32 %27, i32* %9, align 4
  %28 = load i32, i32* %4, align 4
  %29 = icmp eq i32 %28, 0
  br i1 %29, label %30, label %34

30:                                               ; preds = %23
  %31 = load i32, i32* %8, align 4
  %32 = load i32, i32* %9, align 4
  %33 = call i32 (i8*, ...) @printf(i8* getelementptr inbounds ([6 x i8], [6 x i8]* @.str.2, i64 0, i64 0), i32 %31, i32 %32)
  br label %72

34:                                               ; preds = %23
  %35 = load i32, i32* %4, align 4
  %36 = sdiv i32 %35, 10
  store i32 %36, i32* %5, align 4
  %37 = load i32, i32* %4, align 4
  %38 = srem i32 %37, 10
  store i32 %38, i32* %10, align 4
  %39 = load i32, i32* %5, align 4
  %40 = icmp eq i32 %39, 0
  br i1 %40, label %41, label %46

41:                                               ; preds = %34
  %42 = load i32, i32* %8, align 4
  %43 = load i32, i32* %9, align 4
  %44 = load i32, i32* %10, align 4
  %45 = call i32 (i8*, ...) @printf(i8* getelementptr inbounds ([8 x i8], [8 x i8]* @.str.3, i64 0, i64 0), i32 %42, i32 %43, i32 %44)
  br label %71

46:                                               ; preds = %34
  %47 = load i32, i32* %5, align 4
  %48 = sdiv i32 %47, 10
  store i32 %48, i32* %6, align 4
  %49 = load i32, i32* %5, align 4
  %50 = srem i32 %49, 10
  store i32 %50, i32* %11, align 4
  %51 = load i32, i32* %6, align 4
  %52 = icmp eq i32 %51, 0
  br i1 %52, label %53, label %59

53:                                               ; preds = %46
  %54 = load i32, i32* %8, align 4
  %55 = load i32, i32* %9, align 4
  %56 = load i32, i32* %10, align 4
  %57 = load i32, i32* %11, align 4
  %58 = call i32 (i8*, ...) @printf(i8* getelementptr inbounds ([10 x i8], [10 x i8]* @.str.4, i64 0, i64 0), i32 %54, i32 %55, i32 %56, i32 %57)
  br label %70

59:                                               ; preds = %46
  %60 = load i32, i32* %6, align 4
  %61 = sdiv i32 %60, 10
  store i32 %61, i32* %7, align 4
  %62 = load i32, i32* %6, align 4
  %63 = srem i32 %62, 10
  store i32 %63, i32* %12, align 4
  %64 = load i32, i32* %8, align 4
  %65 = load i32, i32* %9, align 4
  %66 = load i32, i32* %10, align 4
  %67 = load i32, i32* %11, align 4
  %68 = load i32, i32* %12, align 4
  %69 = call i32 (i8*, ...) @printf(i8* getelementptr inbounds ([12 x i8], [12 x i8]* @.str.5, i64 0, i64 0), i32 %64, i32 %65, i32 %66, i32 %67, i32 %68)
  br label %70

70:                                               ; preds = %59, %53
  br label %71

71:                                               ; preds = %70, %41
  br label %72

72:                                               ; preds = %71, %30
  br label %73

73:                                               ; preds = %72, %20
  ret i32 0
}

declare dso_local i32 @__isoc99_scanf(i8*, ...) #1

declare dso_local i32 @printf(i8*, ...) #1


!llvm.module.flags = !{!0}
!llvm.ident = !{!1}

!0 = !{i32 1, !"wchar_size", i32 4}
!1 = !{!"clang version 10.0.0-4ubuntu1 "}
